; Function Attrs: nounwind uwtable
define noalias nonnull ptr @l_Lake_instComputeTraceListOfMonad___rarg(ptr noundef %0, ptr noundef %1, ptr noundef %2, ptr noundef %3) #0 {
  tail call void @lean_inc_heartbeat() #4
  %5 = tail call noalias ptr @mi_malloc_small(i64 noundef 56) #4
  %6 = icmp eq ptr %5, null
  br i1 %6, label %7, label %lean_alloc_closure.exit

7:                                                ; preds = %4
  tail call void @lean_internal_panic_out_of_memory() #5
  unreachable

lean_alloc_closure.exit:                          ; preds = %4
  %8 = getelementptr inbounds nuw i8, ptr %5, i64 4
  store i32 1, ptr %5, align 4, !tbaa !4
  store i32 -184549320, ptr %8, align 4
  %9 = getelementptr inbounds nuw i8, ptr %5, i64 8
  store ptr @l_Lake_computeListTrace___at_Lake_instComputeTraceListOfMonad___spec__1___rarg, ptr %9, align 8, !tbaa !9
  %10 = getelementptr inbounds nuw i8, ptr %5, i64 16
  store i16 5, ptr %10, align 8, !tbaa !11
  %11 = getelementptr inbounds nuw i8, ptr %5, i64 18
  store i16 4, ptr %11, align 2, !tbaa !11
  %12 = getelementptr inbounds nuw i8, ptr %5, i64 24
  store ptr %0, ptr %12, align 8, !tbaa !9
  %13 = getelementptr inbounds nuw i8, ptr %5, i64 32
  store ptr %1, ptr %13, align 8, !tbaa !9
  %14 = getelementptr inbounds nuw i8, ptr %5, i64 40
  store ptr %2, ptr %14, align 8, !tbaa !9
  %15 = getelementptr inbounds nuw i8, ptr %5, i64 48
  store ptr %3, ptr %15, align 8, !tbaa !9
  ret ptr %5
}